target datalayout = "e-m:e-p270:32:32-p271:32:32-p272:64:64-i64:64-i128:128-f80:128-n8:16:32:64-S128"
target triple = "x86_64-pc-linux-gnu"

%struct.Texture = type { i32, i32, i32, i32, i32 }
%struct.Rectangle = type { float, float, float, float }
%struct.Color = type { i8, i8, i8, i8 }
%struct.Vector2 = type { float, float }

@texShapes = internal global %struct.Texture { i32 1, i32 1, i32 1, i32 1, i32 7 }, align 4
@texShapesRec = internal global %struct.Rectangle { float 0.000000e+00, float 0.000000e+00, float 1.000000e+00, float 1.000000e+00 }, align 4

; Function Attrs: nounwind uwtable
define { <2 x float>, <2 x float> } @GetShapesTextureRectangle() #2 {
  %1 = alloca %struct.Rectangle, align 4
  call void @llvm.memcpy.p0.p0.i64(ptr align 4 %1, ptr align 4 @texShapesRec, i64 16, i1 false)
  %2 = load { <2 x float>, <2 x float> }, ptr %1, align 4
  ret { <2 x float>, <2 x float> } %2
}

; Function Attrs: nounwind uwtable
define void @GetShapesTexture(ptr dead_on_unwind noalias writable sret(%struct.Texture) align 4 %0) #2 {
  call void @llvm.memcpy.p0.p0.i64(ptr align 4 %0, ptr align 4 @texShapes, i64 20, i1 false)
  ret void
}

; Function Attrs: nounwind uwtable
define void @DrawTriangle(<2 x float> %0, <2 x float> %1, <2 x float> %2, i32 %3) #0 {
  %5 = alloca %struct.Vector2, align 4
  %6 = alloca %struct.Vector2, align 4
  %7 = alloca %struct.Vector2, align 4
  %8 = alloca %struct.Color, align 1
  %9 = alloca %struct.Texture, align 4
  %10 = alloca %struct.Rectangle, align 4
  store <2 x float> %0, ptr %5, align 4
  store <2 x float> %1, ptr %6, align 4
  store <2 x float> %2, ptr %7, align 4
  store i32 %3, ptr %8, align 1
  call void @GetShapesTexture(ptr dead_on_unwind writable sret(%struct.Texture) align 4 %9)
  %11 = getelementptr inbounds nuw %struct.Texture, ptr %9, i32 0, i32 0
  %12 = load i32, ptr %11, align 4
  call void @rlSetTexture(i32 noundef %12)
  call void @llvm.lifetime.start.p0(i64 16, ptr %10) #8
  %13 = call { <2 x float>, <2 x float> } @GetShapesTextureRectangle()
  %14 = getelementptr inbounds nuw { <2 x float>, <2 x float> }, ptr %10, i32 0, i32 0
  %15 = extractvalue { <2 x float>, <2 x float> } %13, 0
  store <2 x float> %15, ptr %14, align 4
  %16 = getelementptr inbounds nuw { <2 x float>, <2 x float> }, ptr %10, i32 0, i32 1
  %17 = extractvalue { <2 x float>, <2 x float> } %13, 1
  store <2 x float> %17, ptr %16, align 4
  call void @rlBegin(i32 noundef 7)
  %18 = getelementptr inbounds nuw %struct.Color, ptr %8, i32 0, i32 0
  %19 = load i8, ptr %18, align 1
  %20 = getelementptr inbounds nuw %struct.Color, ptr %8, i32 0, i32 1
  %21 = load i8, ptr %20, align 1
  %22 = getelementptr inbounds nuw %struct.Color, ptr %8, i32 0, i32 2
  %23 = load i8, ptr %22, align 1
  %24 = getelementptr inbounds nuw %struct.Color, ptr %8, i32 0, i32 3
  %25 = load i8, ptr %24, align 1
  call void @rlColor4ub(i8 noundef zeroext %19, i8 noundef zeroext %21, i8 noundef zeroext %23, i8 noundef zeroext %25)
  %26 = getelementptr inbounds nuw %struct.Rectangle, ptr %10, i32 0, i32 0
  %27 = load float, ptr %26, align 4
  %28 = load i32, ptr getelementptr inbounds nuw (%struct.Texture, ptr @texShapes, i32 0, i32 1), align 4
  %29 = sitofp i32 %28 to float
  %30 = fdiv float %27, %29
  %31 = getelementptr inbounds nuw %struct.Rectangle, ptr %10, i32 0, i32 1
  %32 = load float, ptr %31, align 4
  %33 = load i32, ptr getelementptr inbounds nuw (%struct.Texture, ptr @texShapes, i32 0, i32 2), align 4
  %34 = sitofp i32 %33 to float
  %35 = fdiv float %32, %34
  call void @rlTexCoord2f(float noundef %30, float noundef %35)
  %36 = getelementptr inbounds nuw %struct.Vector2, ptr %5, i32 0, i32 0
  %37 = load float, ptr %36, align 4
  %38 = getelementptr inbounds nuw %struct.Vector2, ptr %5, i32 0, i32 1
  %39 = load float, ptr %38, align 4
  call void @rlVertex2f(float noundef %37, float noundef %39)
  %40 = getelementptr inbounds nuw %struct.Rectangle, ptr %10, i32 0, i32 0
  %41 = load float, ptr %40, align 4
  %42 = load i32, ptr getelementptr inbounds nuw (%struct.Texture, ptr @texShapes, i32 0, i32 1), align 4
  %43 = sitofp i32 %42 to float
  %44 = fdiv float %41, %43
  %45 = getelementptr inbounds nuw %struct.Rectangle, ptr %10, i32 0, i32 1
  %46 = load float, ptr %45, align 4
  %47 = getelementptr inbounds nuw %struct.Rectangle, ptr %10, i32 0, i32 3
  %48 = load float, ptr %47, align 4
  %49 = fadd float %46, %48
  %50 = load i32, ptr getelementptr inbounds nuw (%struct.Texture, ptr @texShapes, i32 0, i32 2), align 4
  %51 = sitofp i32 %50 to float
  %52 = fdiv float %49, %51
  call void @rlTexCoord2f(float noundef %44, float noundef %52)
  %53 = getelementptr inbounds nuw %struct.Vector2, ptr %6, i32 0, i32 0
  %54 = load float, ptr %53, align 4
  %55 = getelementptr inbounds nuw %struct.Vector2, ptr %6, i32 0, i32 1
  %56 = load float, ptr %55, align 4
  call void @rlVertex2f(float noundef %54, float noundef %56)
  %57 = getelementptr inbounds nuw %struct.Rectangle, ptr %10, i32 0, i32 0
  %58 = load float, ptr %57, align 4
  %59 = getelementptr inbounds nuw %struct.Rectangle, ptr %10, i32 0, i32 2
  %60 = load float, ptr %59, align 4
  %61 = fadd float %58, %60
  %62 = load i32, ptr getelementptr inbounds nuw (%struct.Texture, ptr @texShapes, i32 0, i32 1), align 4
  %63 = sitofp i32 %62 to float
  %64 = fdiv float %61, %63
  %65 = getelementptr inbounds nuw %struct.Rectangle, ptr %10, i32 0, i32 1
  %66 = load float, ptr %65, align 4
  %67 = getelementptr inbounds nuw %struct.Rectangle, ptr %10, i32 0, i32 3
  %68 = load float, ptr %67, align 4
  %69 = fadd float %66, %68
  %70 = load i32, ptr getelementptr inbounds nuw (%struct.Texture, ptr @texShapes, i32 0, i32 2), align 4
  %71 = sitofp i32 %70 to float
  %72 = fdiv float %69, %71
  call void @rlTexCoord2f(float noundef %64, float noundef %72)
  %73 = getelementptr inbounds nuw %struct.Vector2, ptr %6, i32 0, i32 0
  %74 = load float, ptr %73, align 4
  %75 = getelementptr inbounds nuw %struct.Vector2, ptr %6, i32 0, i32 1
  %76 = load float, ptr %75, align 4
  call void @rlVertex2f(float noundef %74, float noundef %76)
  %77 = getelementptr inbounds nuw %struct.Rectangle, ptr %10, i32 0, i32 0
  %78 = load float, ptr %77, align 4
  %79 = getelementptr inbounds nuw %struct.Rectangle, ptr %10, i32 0, i32 2
  %80 = load float, ptr %79, align 4
  %81 = fadd float %78, %80
  %82 = load i32, ptr getelementptr inbounds nuw (%struct.Texture, ptr @texShapes, i32 0, i32 1), align 4
  %83 = sitofp i32 %82 to float
  %84 = fdiv float %81, %83
  %85 = getelementptr inbounds nuw %struct.Rectangle, ptr %10, i32 0, i32 1
  %86 = load float, ptr %85, align 4
  %87 = load i32, ptr getelementptr inbounds nuw (%struct.Texture, ptr @texShapes, i32 0, i32 2), align 4
  %88 = sitofp i32 %87 to float
  %89 = fdiv float %86, %88
  call void @rlTexCoord2f(float noundef %84, float noundef %89)
  %90 = getelementptr inbounds nuw %struct.Vector2, ptr %7, i32 0, i32 0
  %91 = load float, ptr %90, align 4
  %92 = getelementptr inbounds nuw %struct.Vector2, ptr %7, i32 0, i32 1
  %93 = load float, ptr %92, align 4
  call void @rlVertex2f(float noundef %91, float noundef %93)
  call void @rlEnd()
  call void @rlSetTexture(i32 noundef 0)
  call void @llvm.lifetime.end.p0(i64 16, ptr %10) #8
  ret void
}