; Function Attrs: nounwind uwtable
define void @DrawTriangle(<2 x float> %0, <2 x float> %1, <2 x float> %2, i32 %3) local_unnamed_addr #4 {
  %.sroa.017.0.extract.trunc = trunc i32 %3 to i8
  %.sroa.2.0.extract.shift = lshr i32 %3, 8
  %.sroa.2.0.extract.trunc = trunc i32 %.sroa.2.0.extract.shift to i8
  %.sroa.3.0.extract.shift = lshr i32 %3, 16
  %.sroa.3.0.extract.trunc = trunc i32 %.sroa.3.0.extract.shift to i8
  %.sroa.4.0.extract.shift = lshr i32 %3, 24
  %.sroa.4.0.extract.trunc = trunc nuw i32 %.sroa.4.0.extract.shift to i8
  %.sroa.0.0.copyload = load i32, ptr @texShapes, align 4
  tail call void @rlSetTexture(i32 noundef %.sroa.0.0.copyload) #16
  %.sroa.0.0.copyload.i = load <2 x float>, ptr @texShapesRec, align 8
  %.sroa.2.0.copyload.i = load <2 x float>, ptr getelementptr inbounds nuw (i8, ptr @texShapesRec, i64 8), align 8
  tail call void @rlBegin(i32 noundef 7) #16
  tail call void @rlColor4ub(i8 noundef zeroext %.sroa.017.0.extract.trunc, i8 noundef zeroext %.sroa.2.0.extract.trunc, i8 noundef zeroext %.sroa.3.0.extract.trunc, i8 noundef zeroext %.sroa.4.0.extract.trunc) #16
  %.sroa.0.0.vec.extract = extractelement <2 x float> %.sroa.0.0.copyload.i, i64 0
  %5 = load i32, ptr getelementptr inbounds nuw (i8, ptr @texShapes, i64 4), align 4
  %6 = sitofp i32 %5 to float
  %7 = fdiv float %.sroa.0.0.vec.extract, %6
  %.sroa.0.4.vec.extract = extractelement <2 x float> %.sroa.0.0.copyload.i, i64 1
  %8 = load i32, ptr getelementptr inbounds nuw (i8, ptr @texShapes, i64 8), align 4
  %9 = sitofp i32 %8 to float
  %10 = fdiv float %.sroa.0.4.vec.extract, %9
  tail call void @rlTexCoord2f(float noundef %7, float noundef %10) #16
  %.sroa.024.0.vec.extract = extractelement <2 x float> %0, i64 0
  %.sroa.024.4.vec.extract = extractelement <2 x float> %0, i64 1
  tail call void @rlVertex2f(float noundef %.sroa.024.0.vec.extract, float noundef %.sroa.024.4.vec.extract) #16
  %11 = load i32, ptr getelementptr inbounds nuw (i8, ptr @texShapes, i64 4), align 4
  %12 = sitofp i32 %11 to float
  %13 = fdiv float %.sroa.0.0.vec.extract, %12
  %14 = fadd <2 x float> %.sroa.0.0.copyload.i, %.sroa.2.0.copyload.i
  %15 = extractelement <2 x float> %14, i64 1
  %16 = load i32, ptr getelementptr inbounds nuw (i8, ptr @texShapes, i64 8), align 4
  %17 = sitofp i32 %16 to float
  %18 = fdiv float %15, %17
  tail call void @rlTexCoord2f(float noundef %13, float noundef %18) #16
  %.sroa.019.0.vec.extract = extractelement <2 x float> %1, i64 0
  %.sroa.019.4.vec.extract = extractelement <2 x float> %1, i64 1
  tail call void @rlVertex2f(float noundef %.sroa.019.0.vec.extract, float noundef %.sroa.019.4.vec.extract) #16
  %19 = fadd <2 x float> %.sroa.0.0.copyload.i, %.sroa.2.0.copyload.i
  %20 = extractelement <2 x float> %19, i64 0
  %21 = load i32, ptr getelementptr inbounds nuw (i8, ptr @texShapes, i64 4), align 4
  %22 = sitofp i32 %21 to float
  %23 = fdiv float %20, %22
  %24 = load i32, ptr getelementptr inbounds nuw (i8, ptr @texShapes, i64 8), align 4
  %25 = sitofp i32 %24 to float
  %26 = fdiv float %15, %25
  tail call void @rlTexCoord2f(float noundef %23, float noundef %26) #16
  tail call void @rlVertex2f(float noundef %.sroa.019.0.vec.extract, float noundef %.sroa.019.4.vec.extract) #16
  %27 = load i32, ptr getelementptr inbounds nuw (i8, ptr @texShapes, i64 4), align 4
  %28 = sitofp i32 %27 to float
  %29 = fdiv float %20, %28
  %30 = load i32, ptr getelementptr inbounds nuw (i8, ptr @texShapes, i64 8), align 4
  %31 = sitofp i32 %30 to float
  %32 = fdiv float %.sroa.0.4.vec.extract, %31
  tail call void @rlTexCoord2f(float noundef %29, float noundef %32) #16
  %.sroa.018.0.vec.extract = extractelement <2 x float> %2, i64 0
  %.sroa.018.4.vec.extract = extractelement <2 x float> %2, i64 1
  tail call void @rlVertex2f(float noundef %.sroa.018.0.vec.extract, float noundef %.sroa.018.4.vec.extract) #16
  tail call void @rlEnd() #16
  tail call void @rlSetTexture(i32 noundef 0) #16
  ret void
}